target datalayout = "e-m:e-p270:32:32-p271:32:32-p272:64:64-i64:64-i128:128-f80:128-n8:16:32:64-S128"
target triple = "x86_64-pc-linux-gnu"

; Function Attrs: nounwind uwtable
define internal void @SDL_Convert21ToQuad(ptr noundef %0, ptr noundef %1, i32 noundef %2) #0 {
  %4 = alloca ptr, align 8
  %5 = alloca ptr, align 8
  %6 = alloca i32, align 4
  %7 = alloca i32, align 4
  %8 = alloca float, align 4
  store ptr %0, ptr %4, align 8
  store ptr %1, ptr %5, align 8
  store i32 %2, ptr %6, align 4
  call void @llvm.lifetime.start.p0(i64 4, ptr %7) #7
  %9 = load i32, ptr %6, align 4
  %10 = sub nsw i32 %9, 1
  %11 = mul nsw i32 %10, 3
  %12 = load ptr, ptr %5, align 8
  %13 = sext i32 %11 to i64
  %14 = getelementptr inbounds float, ptr %12, i64 %13
  store ptr %14, ptr %5, align 8
  %15 = load i32, ptr %6, align 4
  %16 = sub nsw i32 %15, 1
  %17 = mul nsw i32 %16, 4
  %18 = load ptr, ptr %4, align 8
  %19 = sext i32 %17 to i64
  %20 = getelementptr inbounds float, ptr %18, i64 %19
  store ptr %20, ptr %4, align 8
  %21 = load i32, ptr %6, align 4
  store i32 %21, ptr %7, align 4
  br label %22

22:                                               ; preds = %53, %3
  %23 = load i32, ptr %7, align 4
  %24 = icmp ne i32 %23, 0
  br i1 %24, label %25, label %60

25:                                               ; preds = %22
  call void @llvm.lifetime.start.p0(i64 4, ptr %8) #7
  %26 = load ptr, ptr %5, align 8
  %27 = getelementptr inbounds float, ptr %26, i64 2
  %28 = load float, ptr %27, align 4
  store float %28, ptr %8, align 4
  %29 = load float, ptr %8, align 4
  %30 = fmul float %29, 0x3FBC71C720000000
  %31 = load ptr, ptr %4, align 8
  %32 = getelementptr inbounds float, ptr %31, i64 3
  store float %30, ptr %32, align 4
  %33 = load float, ptr %8, align 4
  %34 = fmul float %33, 0x3FBC71C720000000
  %35 = load ptr, ptr %4, align 8
  %36 = getelementptr inbounds float, ptr %35, i64 2
  store float %34, ptr %36, align 4
  %37 = load float, ptr %8, align 4
  %38 = load ptr, ptr %5, align 8
  %39 = getelementptr inbounds float, ptr %38, i64 1
  %40 = load float, ptr %39, align 4
  %41 = fmul float %40, 0x3FEC71C720000000
  %42 = call float @llvm.fmuladd.f32(float %37, float 0x3FBC71C720000000, float %41)
  %43 = load ptr, ptr %4, align 8
  %44 = getelementptr inbounds float, ptr %43, i64 1
  store float %42, ptr %44, align 4
  %45 = load float, ptr %8, align 4
  %46 = load ptr, ptr %5, align 8
  %47 = getelementptr inbounds float, ptr %46, i64 0
  %48 = load float, ptr %47, align 4
  %49 = fmul float %48, 0x3FEC71C720000000
  %50 = call float @llvm.fmuladd.f32(float %45, float 0x3FBC71C720000000, float %49)
  %51 = load ptr, ptr %4, align 8
  %52 = getelementptr inbounds float, ptr %51, i64 0
  store float %50, ptr %52, align 4
  call void @llvm.lifetime.end.p0(i64 4, ptr %8) #7
  br label %53

53:                                               ; preds = %25
  %54 = load i32, ptr %7, align 4
  %55 = add nsw i32 %54, -1
  store i32 %55, ptr %7, align 4
  %56 = load ptr, ptr %5, align 8
  %57 = getelementptr inbounds float, ptr %56, i64 -3
  store ptr %57, ptr %5, align 8
  %58 = load ptr, ptr %4, align 8
  %59 = getelementptr inbounds float, ptr %58, i64 -4
  store ptr %59, ptr %4, align 8
  br label %22, !llvm.loop !60

60:                                               ; preds = %22
  call void @llvm.lifetime.end.p0(i64 4, ptr %7) #7
  ret void
}