; Function Attrs: nofree norecurse nosync nounwind memory(argmem: readwrite) uwtable
define internal void @SDL_Convert21ToQuad(ptr noundef writeonly captures(none) %0, ptr noundef readonly captures(none) %1, i32 noundef %2) #5 {
  %.not21 = icmp eq i32 %2, 0
  br i1 %.not21, label %._crit_edge, label %.lr.ph.preheader

.lr.ph.preheader:                                 ; preds = %3
  %4 = add nsw i32 %2, -1
  %5 = shl nsw i32 %4, 2
  %6 = sext i32 %5 to i64
  %7 = getelementptr inbounds float, ptr %0, i64 %6
  %8 = mul nsw i32 %4, 3
  %9 = sext i32 %8 to i64
  %10 = getelementptr inbounds float, ptr %1, i64 %9
  br label %.lr.ph

.lr.ph:                                           ; preds = %.lr.ph.preheader, %.lr.ph
  %.024 = phi ptr [ %26, %.lr.ph ], [ %7, %.lr.ph.preheader ]
  %.01923 = phi i32 [ %24, %.lr.ph ], [ %2, %.lr.ph.preheader ]
  %.02022 = phi ptr [ %25, %.lr.ph ], [ %10, %.lr.ph.preheader ]
  %11 = getelementptr inbounds nuw i8, ptr %.02022, i64 8
  %12 = load float, ptr %11, align 4
  %13 = fmul float %12, 0x3FBC71C720000000
  %14 = getelementptr inbounds nuw i8, ptr %.024, i64 12
  store float %13, ptr %14, align 4
  %15 = getelementptr inbounds nuw i8, ptr %.024, i64 8
  store float %13, ptr %15, align 4
  %16 = getelementptr inbounds nuw i8, ptr %.02022, i64 4
  %17 = load float, ptr %16, align 4
  %18 = fmul float %17, 0x3FEC71C720000000
  %19 = tail call float @llvm.fmuladd.f32(float %12, float 0x3FBC71C720000000, float %18)
  %20 = getelementptr inbounds nuw i8, ptr %.024, i64 4
  store float %19, ptr %20, align 4
  %21 = load float, ptr %.02022, align 4
  %22 = fmul float %21, 0x3FEC71C720000000
  %23 = tail call float @llvm.fmuladd.f32(float %12, float 0x3FBC71C720000000, float %22)
  store float %23, ptr %.024, align 4
  %24 = add nsw i32 %.01923, -1
  %25 = getelementptr inbounds i8, ptr %.02022, i64 -12
  %26 = getelementptr inbounds i8, ptr %.024, i64 -16
  %.not = icmp eq i32 %24, 0
  br i1 %.not, label %._crit_edge, label %.lr.ph, !llvm.loop !66

._crit_edge:                                      ; preds = %.lr.ph, %3
  ret void
}